; Function Attrs: nounwind uwtable
define noalias noundef nonnull ptr @l_Std_Time_PlainDate_withYearRollOver(ptr noundef %0, ptr noundef %1) local_unnamed_addr #0 {
  %3 = getelementptr inbounds nuw i8, ptr %0, i64 16
  %4 = load ptr, ptr %3, align 8, !tbaa !4
  %5 = ptrtoint ptr %4 to i64
  %6 = and i64 %5, 1
  %.not = icmp eq i64 %6, 0
  br i1 %.not, label %7, label %lean_inc.exit11

7:                                                ; preds = %2
  %.val.i = load i32, ptr %4, align 4, !tbaa !9
  %8 = icmp sgt i32 %.val.i, 0
  br i1 %8, label %9, label %11, !prof !14

9:                                                ; preds = %7
  %10 = add nuw i32 %.val.i, 1
  store i32 %10, ptr %4, align 4, !tbaa !9
  br label %lean_inc.exit11

11:                                               ; preds = %7
  %.not.i14 = icmp eq i32 %.val.i, 0
  br i1 %.not.i14, label %lean_inc.exit11, label %12

12:                                               ; preds = %11
  tail call void @lean_inc_ref_cold(ptr noundef nonnull %4) #5
  br label %lean_inc.exit11

lean_inc.exit11:                                  ; preds = %12, %11, %9, %2
  %13 = getelementptr inbounds nuw i8, ptr %0, i64 24
  %14 = load ptr, ptr %13, align 8, !tbaa !4
  %15 = ptrtoint ptr %14 to i64
  %16 = and i64 %15, 1
  %.not18 = icmp eq i64 %16, 0
  br i1 %.not18, label %17, label %lean_inc.exit

17:                                               ; preds = %lean_inc.exit11
  %.val.i15 = load i32, ptr %14, align 4, !tbaa !9
  %18 = icmp sgt i32 %.val.i15, 0
  br i1 %18, label %19, label %21, !prof !14

19:                                               ; preds = %17
  %20 = add nuw i32 %.val.i15, 1
  store i32 %20, ptr %14, align 4, !tbaa !9
  br label %lean_inc.exit

21:                                               ; preds = %17
  %.not.i16 = icmp eq i32 %.val.i15, 0
  br i1 %.not.i16, label %lean_inc.exit, label %22

22:                                               ; preds = %21
  tail call void @lean_inc_ref_cold(ptr noundef nonnull %14) #5
  br label %lean_inc.exit

lean_inc.exit:                                    ; preds = %22, %21, %19, %lean_inc.exit11
  %23 = ptrtoint ptr %0 to i64
  %24 = and i64 %23, 1
  %.not19 = icmp eq i64 %24, 0
  br i1 %.not19, label %25, label %lean_dec.exit10

25:                                               ; preds = %lean_inc.exit
  %26 = load i32, ptr %0, align 4, !tbaa !9
  %27 = icmp sgt i32 %26, 1
  br i1 %27, label %28, label %30, !prof !14

28:                                               ; preds = %25
  %29 = add nsw i32 %26, -1
  store i32 %29, ptr %0, align 4, !tbaa !9
  br label %lean_dec.exit10

30:                                               ; preds = %25
  %.not.i = icmp eq i32 %26, 0
  br i1 %.not.i, label %lean_dec.exit10, label %31

31:                                               ; preds = %30
  tail call void @lean_dec_ref_cold(ptr noundef nonnull %0) #5
  br label %lean_dec.exit10

lean_dec.exit10:                                  ; preds = %31, %30, %28, %lean_inc.exit
  %32 = tail call ptr @l_Std_Time_PlainDate_rollOver(ptr noundef %1, ptr noundef %4, ptr noundef %14)
  br i1 %.not18, label %33, label %lean_dec.exit

33:                                               ; preds = %lean_dec.exit10
  %34 = load i32, ptr %14, align 4, !tbaa !9
  %35 = icmp sgt i32 %34, 1
  br i1 %35, label %36, label %38, !prof !14

36:                                               ; preds = %33
  %37 = add nsw i32 %34, -1
  store i32 %37, ptr %14, align 4, !tbaa !9
  br label %lean_dec.exit

38:                                               ; preds = %33
  %.not.i12 = icmp eq i32 %34, 0
  br i1 %.not.i12, label %lean_dec.exit, label %39

39:                                               ; preds = %38
  tail call void @lean_dec_ref_cold(ptr noundef nonnull %14) #5
  br label %lean_dec.exit

lean_dec.exit:                                    ; preds = %39, %38, %36, %lean_dec.exit10
  ret ptr %32
}